target datalayout = "e-m:e-p270:32:32-p271:32:32-p272:64:64-i64:64-i128:128-f80:128-n8:16:32:64-S128"
target triple = "x86_64-pc-linux-gnu"

%struct._gsm_a_tap_rec_t = type { i8, i8, i32 }
%struct._sccp_msg_info_t = type { i32, i32, i32, %union.anon }
%union.anon = type { %struct.anon }
%struct.anon = type { ptr, ptr, ptr, ptr, ptr }
%struct._packet_info = type { ptr, ptr, i32, i32, %struct.nstime_t, %struct.nstime_t, %struct.nstime_t, i8, ptr, ptr, ptr, ptr, %struct._address, %struct._address, %struct._address, %struct._address, %struct._address, %struct._address, i32, ptr, i8, [3 x i8], %struct.anon.1, i32, i32, i32, i32, ptr, i8, ptr, ptr, i16, i16, i32, i32, i16, i32, i32, ptr, ptr, ptr, i8, i8, i16, i16, i16, i32, i16, i16, ptr, ptr, ptr, ptr, ptr, i32, i32 }
%struct.nstime_t = type { i64, i32 }
%struct._address = type { i32, i32, ptr, ptr }
%struct.anon.1 = type { i8, [3 x i8] }

@hf_gsm_bssmap_le_msg_type = internal global i32 0, align 4
@hf_gsm_bssmap_le_message_elements = internal global i32 0, align 4
@ett_bssmap_le_msg = internal global i32 0, align 4
@ett_gsm_bssmap_le_msg = internal global [14 x i32] zeroinitializer, align 16
@proto_bssmap_le = internal global i32 0, align 4
@g_tree = internal global ptr null, align 8
@dissect_bssmap_le.tap_rec = internal global [4 x %struct._gsm_a_tap_rec_t] zeroinitializer, align 16
@dissect_bssmap_le.tap_p = internal global ptr null, align 8
@dissect_bssmap_le.tap_current = internal global i32 0, align 4
@.str.206 = private unnamed_addr constant [13 x i8] c"(BSSMAP LE) \00", align 1
@.str.207 = private unnamed_addr constant [18 x i8] c"BSSMAP LE(0x%02x)\00", align 1
@.str.208 = private unnamed_addr constant [58 x i8] c"Lb - I/F BSSMAP LE - Unknown BSSMAP Message Type (0x%02x)\00", align 1
@.str.209 = private unnamed_addr constant [24 x i8] c"Lb - I/F BSSMAP LE - %s\00", align 1
@.str.210 = private unnamed_addr constant [4 x i8] c"%s \00", align 1
@.str.211 = private unnamed_addr constant [16 x i8] c"Message Type %s\00", align 1
@gsm_a_tap = external global i32, align 4

; Function Attrs: null_pointer_is_valid sspstrong uwtable
define internal i32 @dissect_bssmap_le(ptr noundef %0, ptr noundef %1, ptr noundef %2, ptr noundef %3) #1 {
  %5 = alloca i32, align 4
  %6 = alloca ptr, align 8
  %7 = alloca ptr, align 8
  %8 = alloca ptr, align 8
  %9 = alloca ptr, align 8
  %10 = alloca i8, align 1
  %11 = alloca i32, align 4
  %12 = alloca i32, align 4
  %13 = alloca i32, align 4
  %14 = alloca i32, align 4
  %15 = alloca ptr, align 8
  %16 = alloca ptr, align 8
  %17 = alloca ptr, align 8
  %18 = alloca ptr, align 8
  %19 = alloca i32, align 4
  store ptr %0, ptr %6, align 8
  store ptr %1, ptr %7, align 8
  store ptr %2, ptr %8, align 8
  store ptr %3, ptr %9, align 8
  call void @llvm.lifetime.start.p0(i64 1, ptr %10) #3
  call void @llvm.lifetime.start.p0(i64 4, ptr %11) #3
  call void @llvm.lifetime.start.p0(i64 4, ptr %12) #3
  call void @llvm.lifetime.start.p0(i64 4, ptr %13) #3
  call void @llvm.lifetime.start.p0(i64 4, ptr %14) #3
  call void @llvm.lifetime.start.p0(i64 8, ptr %15) #3
  store ptr null, ptr %15, align 8
  call void @llvm.lifetime.start.p0(i64 8, ptr %16) #3
  store ptr null, ptr %16, align 8
  call void @llvm.lifetime.start.p0(i64 8, ptr %17) #3
  call void @llvm.lifetime.start.p0(i64 8, ptr %18) #3
  %20 = load ptr, ptr %9, align 8
  store ptr %20, ptr %18, align 8
  %21 = load ptr, ptr %18, align 8
  %22 = icmp ne ptr %21, null
  br i1 %22, label %23, label %29

23:                                               ; preds = %4
  %24 = load ptr, ptr %18, align 8
  %25 = getelementptr inbounds nuw %struct._sccp_msg_info_t, ptr %24, i32 0, i32 3
  %26 = getelementptr inbounds nuw %struct.anon, ptr %25, i32 0, i32 3
  %27 = load ptr, ptr %26, align 8
  %28 = icmp ne ptr %27, null
  br i1 %28, label %30, label %29

29:                                               ; preds = %23, %4
  store ptr null, ptr %18, align 8
  br label %30

30:                                               ; preds = %29, %23
  %31 = load ptr, ptr %7, align 8
  %32 = getelementptr inbounds nuw %struct._packet_info, ptr %31, i32 0, i32 1
  %33 = load ptr, ptr %32, align 8
  call void @col_append_str(ptr noundef %33, i32 noundef 25, ptr noundef @.str.206)
  %34 = load i32, ptr @dissect_bssmap_le.tap_current, align 4
  %35 = add i32 %34, 1
  store i32 %35, ptr @dissect_bssmap_le.tap_current, align 4
  %36 = load i32, ptr @dissect_bssmap_le.tap_current, align 4
  %37 = icmp uge i32 %36, 4
  br i1 %37, label %38, label %39

38:                                               ; preds = %30
  store i32 0, ptr @dissect_bssmap_le.tap_current, align 4
  br label %39

39:                                               ; preds = %38, %30
  %40 = load i32, ptr @dissect_bssmap_le.tap_current, align 4
  %41 = zext i32 %40 to i64
  %42 = getelementptr [4 x %struct._gsm_a_tap_rec_t], ptr @dissect_bssmap_le.tap_rec, i64 0, i64 %41
  store ptr %42, ptr @dissect_bssmap_le.tap_p, align 8
  store i32 0, ptr %11, align 4
  %43 = load i32, ptr %11, align 4
  store i32 %43, ptr %12, align 4
  %44 = load ptr, ptr %8, align 8
  store ptr %44, ptr @g_tree, align 8
  %45 = load ptr, ptr %6, align 8
  %46 = call i32 @tvb_reported_length(ptr noundef %45)
  store i32 %46, ptr %13, align 4
  %47 = load ptr, ptr %6, align 8
  %48 = load i32, ptr %11, align 4
  %49 = add i32 %48, 1
  store i32 %49, ptr %11, align 4
  %50 = call zeroext i8 @tvb_get_uint8(ptr noundef %47, i32 noundef %48)
  store i8 %50, ptr %10, align 1
  %51 = load i8, ptr %10, align 1
  %52 = zext i8 %51 to i32
  %53 = call ptr @try_val_to_str_idx(i32 noundef %52, ptr noundef @gsm_bssmap_le_msg_strings, ptr noundef %14)
  store ptr %53, ptr %17, align 8
  %54 = load ptr, ptr %18, align 8
  %55 = icmp ne ptr %54, null
  br i1 %55, label %56, label %71

56:                                               ; preds = %39
  %57 = load ptr, ptr %18, align 8
  %58 = getelementptr inbounds nuw %struct._sccp_msg_info_t, ptr %57, i32 0, i32 3
  %59 = getelementptr inbounds nuw %struct.anon, ptr %58, i32 0, i32 0
  %60 = load ptr, ptr %59, align 8
  %61 = icmp ne ptr %60, null
  br i1 %61, label %71, label %62

62:                                               ; preds = %56
  %63 = call ptr @wmem_file_scope()
  %64 = load i8, ptr %10, align 1
  %65 = zext i8 %64 to i32
  %66 = call ptr @val_to_str(i32 noundef %65, ptr noundef @gsm_bssmap_le_msg_strings, ptr noundef @.str.207)
  %67 = call noalias ptr @wmem_strdup(ptr noundef %63, ptr noundef %66)
  %68 = load ptr, ptr %18, align 8
  %69 = getelementptr inbounds nuw %struct._sccp_msg_info_t, ptr %68, i32 0, i32 3
  %70 = getelementptr inbounds nuw %struct.anon, ptr %69, i32 0, i32 0
  store ptr %67, ptr %70, align 8
  br label %71

71:                                               ; preds = %62, %56, %39
  %72 = load ptr, ptr %17, align 8
  %73 = icmp eq ptr %72, null
  br i1 %73, label %74, label %85

74:                                               ; preds = %71
  %75 = load ptr, ptr %8, align 8
  %76 = load i32, ptr @proto_bssmap_le, align 4
  %77 = load ptr, ptr %6, align 8
  %78 = load i32, ptr %13, align 4
  %79 = load i8, ptr %10, align 1
  %80 = zext i8 %79 to i32
  %81 = call ptr (ptr, i32, ptr, i32, i32, ptr, ...) @proto_tree_add_protocol_format(ptr noundef %75, i32 noundef %76, ptr noundef %77, i32 noundef 0, i32 noundef %78, ptr noundef @.str.208, i32 noundef %80)
  store ptr %81, ptr %15, align 8
  %82 = load ptr, ptr %15, align 8
  %83 = load i32, ptr @ett_bssmap_le_msg, align 4
  %84 = call ptr @proto_item_add_subtree(ptr noundef %82, i32 noundef %83)
  store ptr %84, ptr %16, align 8
  br label %109

85:                                               ; preds = %71
  %86 = load ptr, ptr %8, align 8
  %87 = load i32, ptr @proto_bssmap_le, align 4
  %88 = load ptr, ptr %6, align 8
  %89 = load ptr, ptr %17, align 8
  %90 = call ptr (ptr, i32, ptr, i32, i32, ptr, ...) @proto_tree_add_protocol_format(ptr noundef %86, i32 noundef %87, ptr noundef %88, i32 noundef 0, i32 noundef -1, ptr noundef @.str.209, ptr noundef %89)
  store ptr %90, ptr %15, align 8
  %91 = load ptr, ptr %15, align 8
  %92 = load i32, ptr %14, align 4
  %93 = sext i32 %92 to i64
  %94 = getelementptr [14 x i32], ptr @ett_gsm_bssmap_le_msg, i64 0, i64 %93
  %95 = load i32, ptr %94, align 4
  %96 = call ptr @proto_item_add_subtree(ptr noundef %91, i32 noundef %95)
  store ptr %96, ptr %16, align 8
  %97 = load ptr, ptr %7, align 8
  %98 = getelementptr inbounds nuw %struct._packet_info, ptr %97, i32 0, i32 1
  %99 = load ptr, ptr %98, align 8
  %100 = load ptr, ptr %17, align 8
  call void (ptr, i32, ptr, ...) @col_append_fstr(ptr noundef %99, i32 noundef 25, ptr noundef @.str.210, ptr noundef %100)
  %101 = load ptr, ptr %16, align 8
  %102 = load i32, ptr @hf_gsm_bssmap_le_msg_type, align 4
  %103 = load ptr, ptr %6, align 8
  %104 = load i32, ptr %12, align 4
  %105 = load i8, ptr %10, align 1
  %106 = zext i8 %105 to i32
  %107 = load ptr, ptr %17, align 8
  %108 = call ptr (ptr, i32, ptr, i32, i32, i32, ptr, ...) @proto_tree_add_uint_format(ptr noundef %101, i32 noundef %102, ptr noundef %103, i32 noundef %104, i32 noundef 1, i32 noundef %106, ptr noundef @.str.211, ptr noundef %107)
  br label %109

109:                                              ; preds = %85, %74
  %110 = load ptr, ptr @dissect_bssmap_le.tap_p, align 8
  %111 = getelementptr inbounds nuw %struct._gsm_a_tap_rec_t, ptr %110, i32 0, i32 0
  store i8 0, ptr %111, align 4
  %112 = load i8, ptr %10, align 1
  %113 = load ptr, ptr @dissect_bssmap_le.tap_p, align 8
  %114 = getelementptr inbounds nuw %struct._gsm_a_tap_rec_t, ptr %113, i32 0, i32 1
  store i8 %112, ptr %114, align 1
  %115 = load i32, ptr @gsm_a_tap, align 4
  %116 = load ptr, ptr %7, align 8
  %117 = load ptr, ptr @dissect_bssmap_le.tap_p, align 8
  call void @tap_queue_packet(i32 noundef %115, ptr noundef %116, ptr noundef %117)
  %118 = load ptr, ptr %17, align 8
  %119 = icmp eq ptr %118, null
  br i1 %119, label %120, label %122

120:                                              ; preds = %109
  %121 = load i32, ptr %13, align 4
  store i32 %121, ptr %5, align 4
  store i32 1, ptr %19, align 4
  br label %157

122:                                              ; preds = %109
  %123 = load i32, ptr %11, align 4
  %124 = load i32, ptr %13, align 4
  %125 = icmp uge i32 %123, %124
  br i1 %125, label %126, label %128

126:                                              ; preds = %122
  %127 = load i32, ptr %13, align 4
  store i32 %127, ptr %5, align 4
  store i32 1, ptr %19, align 4
  br label %157

128:                                              ; preds = %122
  %129 = load i32, ptr %14, align 4
  %130 = sext i32 %129 to i64
  %131 = getelementptr [14 x ptr], ptr @bssmap_le_msg_fcn, i64 0, i64 %130
  %132 = load ptr, ptr %131, align 8
  %133 = icmp eq ptr %132, null
  br i1 %133, label %134, label %143

134:                                              ; preds = %128
  %135 = load ptr, ptr %16, align 8
  %136 = load i32, ptr @hf_gsm_bssmap_le_message_elements, align 4
  %137 = load ptr, ptr %6, align 8
  %138 = load i32, ptr %11, align 4
  %139 = load i32, ptr %13, align 4
  %140 = load i32, ptr %11, align 4
  %141 = sub i32 %139, %140
  %142 = call ptr @proto_tree_add_item(ptr noundef %135, i32 noundef %136, ptr noundef %137, i32 noundef %138, i32 noundef %141, i32 noundef 0)
  br label %155

143:                                              ; preds = %128
  %144 = load i32, ptr %14, align 4
  %145 = sext i32 %144 to i64
  %146 = getelementptr [14 x ptr], ptr @bssmap_le_msg_fcn, i64 0, i64 %145
  %147 = load ptr, ptr %146, align 8
  %148 = load ptr, ptr %6, align 8
  %149 = load ptr, ptr %16, align 8
  %150 = load ptr, ptr %7, align 8
  %151 = load i32, ptr %11, align 4
  %152 = load i32, ptr %13, align 4
  %153 = load i32, ptr %11, align 4
  %154 = sub i32 %152, %153
  call void %147(ptr noundef %148, ptr noundef %149, ptr noundef %150, i32 noundef %151, i32 noundef %154)
  br label %155

155:                                              ; preds = %143, %134
  %156 = load i32, ptr %13, align 4
  store i32 %156, ptr %5, align 4
  store i32 1, ptr %19, align 4
  br label %157

157:                                              ; preds = %155, %126, %120
  call void @llvm.lifetime.end.p0(i64 8, ptr %18) #3
  call void @llvm.lifetime.end.p0(i64 8, ptr %17) #3
  call void @llvm.lifetime.end.p0(i64 8, ptr %16) #3
  call void @llvm.lifetime.end.p0(i64 8, ptr %15) #3
  call void @llvm.lifetime.end.p0(i64 4, ptr %14) #3
  call void @llvm.lifetime.end.p0(i64 4, ptr %13) #3
  call void @llvm.lifetime.end.p0(i64 4, ptr %12) #3
  call void @llvm.lifetime.end.p0(i64 4, ptr %11) #3
  call void @llvm.lifetime.end.p0(i64 1, ptr %10) #3
  %158 = load i32, ptr %5, align 4
  ret i32 %158
}