; Function Attrs: null_pointer_is_valid sspstrong uwtable
define internal i32 @dissect_bssmap_le(ptr noundef %0, ptr noundef %1, ptr noundef %2, ptr noundef captures(address) %3) #1 {
  %5 = alloca i32, align 4
  call void @llvm.lifetime.start.p0(i64 4, ptr nonnull %5) #3
  %.not = icmp eq ptr %3, null
  br i1 %.not, label %9, label %6

6:                                                ; preds = %4
  %7 = getelementptr inbounds nuw i8, ptr %3, i64 40
  %8 = load ptr, ptr %7, align 8
  %.not56 = icmp eq ptr %8, null
  br i1 %.not56, label %9, label %10

9:                                                ; preds = %6, %4
  br label %10

10:                                               ; preds = %9, %6
  %.0 = phi ptr [ %3, %6 ], [ null, %9 ]
  %11 = getelementptr inbounds nuw i8, ptr %1, i64 8
  %12 = load ptr, ptr %11, align 8
  tail call void @col_append_str(ptr noundef %12, i32 noundef 25, ptr noundef nonnull @.str.206)
  %13 = load i32, ptr @dissect_bssmap_le.tap_current, align 4
  %14 = add i32 %13, 1
  %15 = icmp ugt i32 %14, 3
  %spec.store.select = select i1 %15, i32 0, i32 %14
  store i32 %spec.store.select, ptr @dissect_bssmap_le.tap_current, align 4
  %16 = zext i32 %spec.store.select to i64
  %17 = getelementptr [4 x %struct._gsm_a_tap_rec_t], ptr @dissect_bssmap_le.tap_rec, i64 0, i64 %16
  store ptr %17, ptr @dissect_bssmap_le.tap_p, align 8
  store ptr %2, ptr @g_tree, align 8
  %18 = tail call i32 @tvb_reported_length(ptr noundef %0)
  %19 = tail call zeroext i8 @tvb_get_uint8(ptr noundef %0, i32 noundef 0)
  %20 = zext i8 %19 to i32
  %21 = call ptr @try_val_to_str_idx(i32 noundef %20, ptr noundef nonnull @gsm_bssmap_le_msg_strings, ptr noundef nonnull %5)
  %.not57 = icmp eq ptr %.0, null
  br i1 %.not57, label %29, label %22

22:                                               ; preds = %10
  %23 = getelementptr inbounds nuw i8, ptr %.0, i64 16
  %24 = load ptr, ptr %23, align 8
  %.not58 = icmp eq ptr %24, null
  br i1 %.not58, label %25, label %29

25:                                               ; preds = %22
  %26 = call ptr @wmem_file_scope()
  %27 = call ptr @val_to_str(i32 noundef %20, ptr noundef nonnull @gsm_bssmap_le_msg_strings, ptr noundef nonnull @.str.207)
  %28 = call noalias ptr @wmem_strdup(ptr noundef %26, ptr noundef %27)
  store ptr %28, ptr %23, align 8
  br label %29

29:                                               ; preds = %25, %22, %10
  %30 = icmp eq ptr %21, null
  %31 = load i32, ptr @proto_bssmap_le, align 4
  br i1 %30, label %32, label %36

32:                                               ; preds = %29
  %33 = call ptr (ptr, i32, ptr, i32, i32, ptr, ...) @proto_tree_add_protocol_format(ptr noundef %2, i32 noundef %31, ptr noundef %0, i32 noundef 0, i32 noundef %18, ptr noundef nonnull @.str.208, i32 noundef %20)
  %34 = load i32, ptr @ett_bssmap_le_msg, align 4
  %35 = call ptr @proto_item_add_subtree(ptr noundef %33, i32 noundef %34)
  br label %46

36:                                               ; preds = %29
  %37 = call ptr (ptr, i32, ptr, i32, i32, ptr, ...) @proto_tree_add_protocol_format(ptr noundef %2, i32 noundef %31, ptr noundef %0, i32 noundef 0, i32 noundef -1, ptr noundef nonnull @.str.209, ptr noundef nonnull %21)
  %38 = load i32, ptr %5, align 4
  %39 = sext i32 %38 to i64
  %40 = getelementptr [14 x i32], ptr @ett_gsm_bssmap_le_msg, i64 0, i64 %39
  %41 = load i32, ptr %40, align 4
  %42 = call ptr @proto_item_add_subtree(ptr noundef %37, i32 noundef %41)
  %43 = load ptr, ptr %11, align 8
  call void (ptr, i32, ptr, ...) @col_append_fstr(ptr noundef %43, i32 noundef 25, ptr noundef nonnull @.str.210, ptr noundef nonnull %21)
  %44 = load i32, ptr @hf_gsm_bssmap_le_msg_type, align 4
  %45 = call ptr (ptr, i32, ptr, i32, i32, i32, ptr, ...) @proto_tree_add_uint_format(ptr noundef %42, i32 noundef %44, ptr noundef %0, i32 noundef 0, i32 noundef 1, i32 noundef %20, ptr noundef nonnull @.str.211, ptr noundef nonnull %21)
  br label %46

46:                                               ; preds = %36, %32
  %.051 = phi ptr [ %35, %32 ], [ %42, %36 ]
  %47 = load ptr, ptr @dissect_bssmap_le.tap_p, align 8
  store i8 0, ptr %47, align 4
  %48 = getelementptr inbounds nuw i8, ptr %47, i64 1
  store i8 %19, ptr %48, align 1
  %49 = load i32, ptr @gsm_a_tap, align 4
  call void @tap_queue_packet(i32 noundef %49, ptr noundef %1, ptr noundef %47)
  %50 = icmp ult i32 %18, 2
  %or.cond = select i1 %30, i1 true, i1 %50
  br i1 %or.cond, label %65, label %51

51:                                               ; preds = %46
  %52 = load i32, ptr %5, align 4
  %53 = sext i32 %52 to i64
  %54 = and i64 %53, 2305843009213693951
  %55 = shl nuw i64 1, %54
  %56 = and i64 %55, 13343
  %.not59 = icmp eq i64 %56, 0
  br i1 %.not59, label %61, label %57

57:                                               ; preds = %51
  %58 = load i32, ptr @hf_gsm_bssmap_le_message_elements, align 4
  %59 = add i32 %18, -1
  %60 = call ptr @proto_tree_add_item(ptr noundef %.051, i32 noundef %58, ptr noundef %0, i32 noundef 1, i32 noundef %59, i32 noundef 0)
  br label %65

61:                                               ; preds = %51
  %62 = getelementptr [14 x ptr], ptr @bssmap_le_msg_fcn, i64 0, i64 %53
  %63 = load ptr, ptr %62, align 8
  %64 = add i32 %18, -1
  call void %63(ptr noundef %0, ptr noundef %.051, ptr noundef %1, i32 noundef 1, i32 noundef %64)
  br label %65

65:                                               ; preds = %57, %61, %46
  call void @llvm.lifetime.end.p0(i64 4, ptr nonnull %5) #3
  ret i32 %18
}